(dp0
S'Mohammed'
p1
(lp2
F-0.10439667850732803
aF0.05440663546323776
aF0.0938882827758789
aF-0.07835448533296585
aF-0.07298827916383743
aF-0.03726629912853241
aF-0.036113739013671875
aF-0.08955764770507812
aF0.23526254296302795
aF-0.20227666199207306
aF0.2739524245262146
aF-0.03670308366417885
aF-0.21829283237457275
aF-0.00040294183418154716
aF-0.037189461290836334
aF0.19152061641216278
aF-0.13353748619556427
aF-0.13234390318393707
aF-0.007183955982327461
aF0.0008639488369226456
aF0.07917908579111099
aF0.011961455456912518
aF-0.024592602625489235
aF0.05373238027095795
aF-0.08838030695915222
aF-0.3887920677661896
aF-0.12049031257629395
aF-0.12926897406578064
aF0.026531720533967018
aF-0.08315196633338928
aF0.017287395894527435
aF0.08777595311403275
aF-0.14769043028354645
aF0.02327854186296463
aF-0.010214323177933693
aF0.012981576845049858
aF0.012613250873982906
aF-0.033666811883449554
aF0.13229799270629883
aF0.015584216453135014
aF-0.23019899427890778
aF-0.07721855491399765
aF0.06425409764051437
aF0.17119617760181427
aF0.11079636216163635
aF0.027454830706119537
aF0.07546189427375793
aF-0.10799059271812439
aF0.019126171246170998
aF-0.21830332279205322
aF0.007147328928112984
aF0.08498416095972061
aF0.09767550230026245
aF0.04472297430038452
aF0.09914933145046234
aF-0.21126973628997803
aF-0.0067311301827430725
aF0.03664132207632065
aF-0.16164551675319672
aF0.12596149742603302
aF0.04343995824456215
aF-0.016144083812832832
aF-0.08491795510053635
aF0.012484686449170113
aF0.24277548491954803
aF0.10616707056760788
aF-0.14669734239578247
aF-0.08183559775352478
aF0.24181851744651794
aF-0.13837994635105133
aF-0.014108898118138313
aF0.07731929421424866
aF-0.1403893083333969
aF-0.19271235167980194
aF-0.20618179440498352
aF-0.06263688951730728
aF0.4399380385875702
aF0.10049061477184296
aF-0.1656627058982849
aF0.04857434332370758
aF-0.12074905633926392
aF-0.011313052847981453
aF-0.0011892805341631174
aF0.09674780815839767
aF-0.044514160603284836
aF-0.00991989579051733
aF-0.06476334482431412
aF0.029988974332809448
aF0.17051546275615692
aF-0.0016879495233297348
aF0.03686013072729111
aF0.2313898503780365
aF-0.057334646582603455
aF0.024541981518268585
aF-0.029838519170880318
aF0.06386309862136841
aF-0.09040063619613647
aF-0.08164029568433762
aF-0.08737223595380783
aF-0.13180378079414368
aF-0.004794915206730366
aF-0.06686212122440338
aF-0.052638180553913116
aF0.12927933037281036
aF-0.23631452023983002
aF0.13997316360473633
aF0.003605632809922099
aF-0.009647203609347343
aF0.039852485060691833
aF0.15775343775749207
aF-0.03383715823292732
aF-0.0499396026134491
aF0.12597452104091644
aF-0.1734120398759842
aF0.1548071652650833
aF0.1709272861480713
aF0.014850265346467495
aF0.1267162561416626
aF0.026177410036325455
aF0.09939052164554596
aF-0.011807899922132492
aF-0.10327157378196716
aF-0.17664551734924316
aF-0.0680379793047905
aF-0.03406713902950287
aF-0.05826955288648605
aF-0.014347480610013008
aF0.0010011899285018444
as.